; Function Attrs: mustprogress nofree norecurse nosync nounwind willreturn memory(argmem: read) uwtable
define hidden noundef i32 @_ZNK19OpenColorIO_v2_4dev11GammaOpData12getDirectionEv(ptr nocapture noundef nonnull readonly align 8 dereferenceable(272) %this) local_unnamed_addr #8 align 2 {
entry:
  %m_style = getelementptr inbounds i8, ptr %this, i64 168
  %0 = load i32, ptr %m_style, align 8
  %switch.tableidx = add i32 %0, -1
  %1 = icmp ult i32 %switch.tableidx, 9
  br i1 %1, label %switch.lookup, label %return

switch.lookup:                                    ; preds = %entry
  %2 = zext nneg i32 %switch.tableidx to i64
  %switch.gep = getelementptr inbounds [9 x i32], ptr @switch.table._ZN19OpenColorIO_v2_4dev11GammaOpData12setDirectionENS_18TransformDirectionE, i64 0, i64 %2
  %switch.load = load i32, ptr %switch.gep, align 4
  br label %return

return:                                           ; preds = %switch.lookup, %entry
  %retval.0 = phi i32 [ 0, %entry ], [ %switch.load, %switch.lookup ]
  ret i32 %retval.0
}